target datalayout = "e-m:e-p270:32:32-p271:32:32-p272:64:64-i64:64-i128:128-f80:128-n8:16:32:64-S128"
target triple = "x86_64-pc-linux-gnu"

%struct.dt_pthread_mutex_t = type { %union.pthread_mutex_t }
%union.pthread_mutex_t = type { %struct.__pthread_mutex_s }
%struct.__pthread_mutex_s = type { i32, i32, i32, i32, i32, i16, i16, %struct.__pthread_internal_list }
%struct.__pthread_internal_list = type { ptr, ptr }
%struct.dt_dev_histogram_stats_t = type { i32, i64, i32, i32 }
%struct.dt_iop_buffer_dsc_t = type { i32, i32, i32, [6 x [6 x i8]], %struct.anon, [12 x i8], %struct.anon.0, [4 x float], i32, [12 x i8] }
%struct.anon = type { i16, i16 }
%struct.anon.0 = type { i32, [12 x i8], [4 x float] }
%struct.dt_iop_module_t = type { i32, ptr, ptr, ptr, ptr, ptr, ptr, ptr, ptr, ptr, ptr, ptr, ptr, ptr, ptr, ptr, ptr, ptr, ptr, ptr, ptr, ptr, ptr, ptr, ptr, ptr, ptr, ptr, ptr, ptr, ptr, ptr, ptr, ptr, ptr, ptr, ptr, ptr, ptr, ptr, ptr, ptr, ptr, ptr, ptr, ptr, ptr, ptr, ptr, ptr, ptr, ptr, ptr, ptr, ptr, ptr, ptr, [20 x i8], i32, i32, i32, i32, i32, i32, i32, [8 x i8], [4 x float], [4 x float], [4 x float], [4 x float], [4 x float], [4 x float], ptr, %struct.dt_dev_histogram_stats_t, [4 x i32], i32, i32, ptr, i32, i32, ptr, ptr, i32, ptr, %struct.dt_pthread_mutex_t, ptr, ptr, ptr, ptr, %struct.anon.1, ptr, ptr, ptr, ptr, ptr, ptr, ptr, i32, ptr, ptr, ptr, ptr, ptr, ptr, ptr, i32, ptr, i32, [128 x i8], i32, ptr, ptr, i32, [12 x i8] }
%struct.anon.1 = type { %struct.anon.2, %struct.anon.3 }
%struct.anon.2 = type { ptr, ptr }
%struct.anon.3 = type { ptr, i32 }
%struct.dt_develop_t = type { i32, i32, i32, ptr, double, double, i32, i32, i32, i32, i32, double, i32, i32, i32, ptr, ptr, [8 x i8], %struct.dt_image_t, i32, i32, %struct.dt_pthread_mutex_t, i32, ptr, i32, ptr, i32, ptr, ptr, i32, ptr, ptr, ptr, ptr, i32, i32, ptr, ptr, ptr, ptr, i32, i32, i32, float, float, ptr, i32, %struct.anon.8, %struct.dt_dev_chroma_t, %struct.anon.11, %struct.anon.12, %struct.anon.13, %struct.anon.14, %struct.anon.15, %struct.anon.16, ptr, ptr, %struct.dt_dev_viewport_t, %struct.dt_dev_viewport_t, i32, i32, i32, ptr, [8 x i8] }
%struct.dt_image_t = type { i32, i32, float, float, float, float, float, float, float, [64 x i8], [64 x i8], [128 x i8], [64 x i8], [64 x i8], [64 x i8], [64 x i8], i64, i32, %union.dt_image_correction_data_t, [64 x i8], [64 x i8], [64 x i8], [128 x i8], i32, [256 x i8], i32, i32, i32, i32, i32, i32, i32, i32, i32, i32, float, i32, i32, i32, i32, i32, i32, i64, i64, i64, i64, i32, [12 x i8], %struct.dt_iop_buffer_dsc_t, [9 x float], ptr, i32, i32, %struct.dt_image_raw_parameters_t, %struct.dt_image_geoloc_t, %struct._color_harmony_t, i16, [4 x i16], i32, i32, float, float, [4 x float], [4 x [3 x float]], [4 x float], ptr, ptr, i32, i32, [8 x i8] }
%union.dt_image_correction_data_t = type { %struct.anon.5 }
%struct.anon.5 = type { i32, float, [11 x float], [11 x float], [11 x float], [11 x float], [11 x float] }
%struct.dt_image_raw_parameters_t = type { i32 }
%struct.dt_image_geoloc_t = type { double, double, double }
%struct._color_harmony_t = type { i32, i32, i32 }
%struct.anon.8 = type { %struct.dt_dev_proxy_exposure_t, ptr, %struct.anon.9, %struct.anon.10 }
%struct.dt_dev_proxy_exposure_t = type { ptr, ptr, ptr, ptr }
%struct.anon.9 = type { ptr, ptr, ptr, ptr, ptr, ptr, ptr, ptr, ptr }
%struct.anon.10 = type { ptr, ptr, ptr, ptr, ptr }
%struct.dt_dev_chroma_t = type { ptr, ptr, [4 x double], [4 x double], [4 x double], i32 }
%struct.anon.11 = type { ptr, ptr, ptr }
%struct.anon.12 = type { ptr, ptr, i32, i32, float, float, i32 }
%struct.anon.13 = type { ptr, ptr, i32, i32, i32, float }
%struct.anon.14 = type { ptr }
%struct.anon.15 = type { ptr, i32 }
%struct.anon.16 = type { ptr, ptr, ptr }
%struct.dt_dev_viewport_t = type { ptr, i32, i32, i32, i32, i32, double, double, double, i32, i32, i32, float, float, float, ptr }
%struct.dt_iop_lut3d_gui_data_t = type { ptr, ptr, ptr, ptr, ptr, ptr, ptr, i64 }

@.str.127 = private unnamed_addr constant [8 x i8] c"colorin\00", align 1
@.str.128 = private unnamed_addr constant [9 x i8] c"colorout\00", align 1

; Function Attrs: nounwind uwtable
define internal void @_show_hide_colorspace(ptr noundef %0) #0 {
  %2 = alloca ptr, align 8
  %3 = alloca ptr, align 8
  %4 = alloca ptr, align 8
  %5 = alloca i32, align 4
  %6 = alloca i32, align 4
  %7 = alloca i32, align 4
  store ptr %0, ptr %2, align 8, !tbaa !6
  call void @llvm.lifetime.start.p0(i64 8, ptr %3) #13
  %8 = load ptr, ptr %2, align 8, !tbaa !6
  %9 = getelementptr inbounds nuw %struct.dt_iop_module_t, ptr %8, i32 0, i32 83
  %10 = load ptr, ptr %9, align 16, !tbaa !178
  store ptr %10, ptr %3, align 8, !tbaa !166
  call void @llvm.lifetime.start.p0(i64 8, ptr %4) #13
  %11 = load ptr, ptr %2, align 8, !tbaa !6
  %12 = getelementptr inbounds nuw %struct.dt_iop_module_t, ptr %11, i32 0, i32 77
  %13 = load ptr, ptr %12, align 8, !tbaa !120
  %14 = getelementptr inbounds nuw %struct.dt_develop_t, ptr %13, i32 0, i32 30
  %15 = load ptr, ptr %14, align 16, !tbaa !184
  store ptr %15, ptr %4, align 8, !tbaa !185
  call void @llvm.lifetime.start.p0(i64 4, ptr %5) #13
  %16 = load ptr, ptr %4, align 8, !tbaa !185
  %17 = load ptr, ptr %2, align 8, !tbaa !6
  %18 = getelementptr inbounds nuw %struct.dt_iop_module_t, ptr %17, i32 0, i32 57
  %19 = getelementptr inbounds [20 x i8], ptr %18, i64 0, i64 0
  %20 = load ptr, ptr %2, align 8, !tbaa !6
  %21 = getelementptr inbounds nuw %struct.dt_iop_module_t, ptr %20, i32 0, i32 107
  %22 = load i32, ptr %21, align 8, !tbaa !186
  %23 = call i32 @dt_ioppr_get_iop_order(ptr noundef %16, ptr noundef %19, i32 noundef %22)
  store i32 %23, ptr %5, align 4, !tbaa !16
  call void @llvm.lifetime.start.p0(i64 4, ptr %6) #13
  %24 = load ptr, ptr %4, align 8, !tbaa !185
  %25 = call i32 @dt_ioppr_get_iop_order(ptr noundef %24, ptr noundef @.str.127, i32 noundef -1)
  store i32 %25, ptr %6, align 4, !tbaa !16
  call void @llvm.lifetime.start.p0(i64 4, ptr %7) #13
  %26 = load ptr, ptr %4, align 8, !tbaa !185
  %27 = call i32 @dt_ioppr_get_iop_order(ptr noundef %26, ptr noundef @.str.128, i32 noundef -1)
  store i32 %27, ptr %7, align 4, !tbaa !16
  %28 = load i32, ptr %5, align 4, !tbaa !16
  %29 = load i32, ptr %6, align 4, !tbaa !16
  %30 = icmp slt i32 %28, %29
  br i1 %30, label %35, label %31

31:                                               ; preds = %1
  %32 = load i32, ptr %5, align 4, !tbaa !16
  %33 = load i32, ptr %7, align 4, !tbaa !16
  %34 = icmp sgt i32 %32, %33
  br i1 %34, label %35, label %39

35:                                               ; preds = %31, %1
  %36 = load ptr, ptr %3, align 8, !tbaa !166
  %37 = getelementptr inbounds nuw %struct.dt_iop_lut3d_gui_data_t, ptr %36, i32 0, i32 2
  %38 = load ptr, ptr %37, align 8, !tbaa !187
  call void @gtk_widget_hide(ptr noundef %38)
  br label %43

39:                                               ; preds = %31
  %40 = load ptr, ptr %3, align 8, !tbaa !166
  %41 = getelementptr inbounds nuw %struct.dt_iop_lut3d_gui_data_t, ptr %40, i32 0, i32 2
  %42 = load ptr, ptr %41, align 8, !tbaa !187
  call void @gtk_widget_show(ptr noundef %42)
  br label %43

43:                                               ; preds = %39, %35
  call void @llvm.lifetime.end.p0(i64 4, ptr %7) #13
  call void @llvm.lifetime.end.p0(i64 4, ptr %6) #13
  call void @llvm.lifetime.end.p0(i64 4, ptr %5) #13
  call void @llvm.lifetime.end.p0(i64 8, ptr %4) #13
  call void @llvm.lifetime.end.p0(i64 8, ptr %3) #13
  ret void
}

; Function Attrs: nounwind uwtable
define hidden void @module_moved_callback(ptr noundef %0, ptr noundef %1) #0 {
  %3 = alloca ptr, align 8
  %4 = alloca ptr, align 8
  store ptr %0, ptr %3, align 8, !tbaa !15
  store ptr %1, ptr %4, align 8, !tbaa !6
  %5 = load ptr, ptr %4, align 8, !tbaa !6
  call void @_show_hide_colorspace(ptr noundef %5)
  ret void
}