; Function Attrs: nounwind uwtable
define hidden void @module_moved_callback(ptr readnone captures(none) %0, ptr noundef %1) #1 {
  %3 = getelementptr inbounds nuw i8, ptr %1, i64 704
  %4 = load ptr, ptr %3, align 16, !tbaa !137
  %5 = getelementptr inbounds nuw i8, ptr %1, i64 664
  %6 = load ptr, ptr %5, align 8, !tbaa !97
  %7 = getelementptr inbounds nuw i8, ptr %6, i64 2080
  %8 = load ptr, ptr %7, align 16, !tbaa !141
  %9 = getelementptr inbounds nuw i8, ptr %1, i64 456
  %10 = getelementptr inbounds nuw i8, ptr %1, i64 952
  %11 = load i32, ptr %10, align 8, !tbaa !142
  %12 = tail call i32 @dt_ioppr_get_iop_order(ptr noundef %8, ptr noundef nonnull %9, i32 noundef %11) #25
  %13 = tail call i32 @dt_ioppr_get_iop_order(ptr noundef %8, ptr noundef nonnull @.str.127, i32 noundef -1) #25
  %14 = tail call i32 @dt_ioppr_get_iop_order(ptr noundef %8, ptr noundef nonnull @.str.128, i32 noundef -1) #25
  %15 = icmp slt i32 %12, %13
  %16 = icmp sgt i32 %12, %14
  %or.cond.i = select i1 %15, i1 true, i1 %16
  %17 = getelementptr inbounds nuw i8, ptr %4, i64 16
  %18 = load ptr, ptr %17, align 8, !tbaa !143
  br i1 %or.cond.i, label %19, label %20

19:                                               ; preds = %2
  tail call void @gtk_widget_hide(ptr noundef %18) #25
  br label %_show_hide_colorspace.exit

20:                                               ; preds = %2
  tail call void @gtk_widget_show(ptr noundef %18) #25
  br label %_show_hide_colorspace.exit

_show_hide_colorspace.exit:                       ; preds = %19, %20
  ret void
}